target datalayout = "e-m:e-p270:32:32-p271:32:32-p272:64:64-i64:64-i128:128-f80:128-n8:16:32:64-S128"
target triple = "x86_64-pc-linux-gnu"

@.str.1 = private unnamed_addr constant [4 x i8] c" %d\00", align 1
@.str.2 = private unnamed_addr constant [4 x i8] c" }\0A\00", align 1
@.str.3 = private unnamed_addr constant [13 x i8] c"Resolvent: {\00", align 1

; Function Attrs: nounwind uwtable
define void @Intb_ManPrintResolvent(ptr noundef %0, i32 noundef %1) #0 {
  %3 = alloca ptr, align 8
  %4 = alloca i32, align 4
  %5 = alloca i32, align 4
  store ptr %0, ptr %3, align 8, !tbaa !61
  store i32 %1, ptr %4, align 4, !tbaa !23
  call void @llvm.lifetime.start.p0(i64 4, ptr %5) #9
  %6 = call i32 (ptr, ...) @printf(ptr noundef @.str.3)
  store i32 0, ptr %5, align 4, !tbaa !23
  br label %7

7:                                                ; preds = %18, %2
  %8 = load i32, ptr %5, align 4, !tbaa !23
  %9 = load i32, ptr %4, align 4, !tbaa !23
  %10 = icmp slt i32 %8, %9
  br i1 %10, label %11, label %21

11:                                               ; preds = %7
  %12 = load ptr, ptr %3, align 8, !tbaa !61
  %13 = load i32, ptr %5, align 4, !tbaa !23
  %14 = sext i32 %13 to i64
  %15 = getelementptr inbounds i32, ptr %12, i64 %14
  %16 = load i32, ptr %15, align 4, !tbaa !23
  %17 = call i32 (ptr, ...) @printf(ptr noundef @.str.1, i32 noundef %16)
  br label %18

18:                                               ; preds = %11
  %19 = load i32, ptr %5, align 4, !tbaa !23
  %20 = add nsw i32 %19, 1
  store i32 %20, ptr %5, align 4, !tbaa !23
  br label %7, !llvm.loop !62

21:                                               ; preds = %7
  %22 = call i32 (ptr, ...) @printf(ptr noundef @.str.2)
  call void @llvm.lifetime.end.p0(i64 4, ptr %5) #9
  ret void
}